; Function Attrs: nounwind uwtable
define void @Abc_NtkExpandCubes(ptr noundef %0, ptr noundef %1, i32 noundef %2) local_unnamed_addr #0 {
  %4 = alloca i32, align 4
  %5 = tail call noalias dereferenceable_or_null(16) ptr @malloc(i64 noundef 16) #7
  %6 = getelementptr inbounds nuw i8, ptr %5, i64 4
  store i32 0, ptr %6, align 4
  store i32 1000, ptr %5, align 8
  %7 = tail call noalias dereferenceable_or_null(1000) ptr @malloc(i64 noundef 1000) #7
  %8 = getelementptr inbounds nuw i8, ptr %5, i64 8
  store ptr %7, ptr %8, align 8
  %9 = getelementptr i8, ptr %0, i64 64
  store i32 0, ptr %4, align 4
  %.val2128 = load ptr, ptr %9, align 8
  %10 = getelementptr i8, ptr %.val2128, i64 4
  %.val21.val29 = load i32, ptr %10, align 4
  %11 = icmp sgt i32 %.val21.val29, 0
  br i1 %11, label %.lr.ph, label %.critedge

.lr.ph:                                           ; preds = %3
  %12 = getelementptr inbounds nuw i8, ptr %0, i64 256
  br label %13

13:                                               ; preds = %.lr.ph, %65
  %.val2132 = phi ptr [ %.val2128, %.lr.ph ], [ %.val21, %65 ]
  %storemerge30 = phi i32 [ 0, %.lr.ph ], [ %67, %65 ]
  %14 = getelementptr i8, ptr %.val2132, i64 8
  %.val22.val = load ptr, ptr %14, align 8
  %15 = sext i32 %storemerge30 to i64
  %16 = getelementptr inbounds ptr, ptr %.val22.val, i64 %15
  %17 = load ptr, ptr %16, align 8
  %.val23 = load ptr, ptr %17, align 8
  %18 = getelementptr i8, ptr %17, i64 32
  %.val24 = load ptr, ptr %18, align 8
  %19 = getelementptr i8, ptr %.val23, i64 32
  %.val23.val = load ptr, ptr %19, align 8
  %.val24.val = load i32, ptr %.val24, align 4
  %20 = getelementptr i8, ptr %.val23.val, i64 8
  %.val23.val.val = load ptr, ptr %20, align 8
  %21 = sext i32 %.val24.val to i64
  %22 = getelementptr inbounds ptr, ptr %.val23.val.val, i64 %21
  %23 = load ptr, ptr %22, align 8
  %24 = getelementptr i8, ptr %23, i64 20
  %.val25 = load i32, ptr %24, align 4
  %25 = and i32 %.val25, 15
  %.not = icmp eq i32 %25, 7
  br i1 %.not, label %26, label %65

26:                                               ; preds = %13
  %27 = getelementptr i8, ptr %23, i64 28
  %.val26 = load i32, ptr %27, align 4
  %28 = icmp eq i32 %.val26, 0
  br i1 %28, label %65, label %29

29:                                               ; preds = %26
  store i32 0, ptr %6, align 4
  %30 = getelementptr inbounds nuw i8, ptr %23, i64 56
  %31 = load ptr, ptr %30, align 8
  call fastcc void @Vec_StrPrintStr(ptr noundef nonnull %5, ptr noundef readonly %31)
  %32 = load i32, ptr %6, align 4
  %33 = load i32, ptr %5, align 8
  %34 = icmp eq i32 %32, %33
  br i1 %34, label %35, label %.Vec_StrGrow.exit10_crit_edge.i

.Vec_StrGrow.exit10_crit_edge.i:                  ; preds = %29
  %.pre.i = load ptr, ptr %8, align 8
  br label %Vec_StrPush.exit

35:                                               ; preds = %29
  %36 = icmp slt i32 %32, 16
  br i1 %36, label %37, label %44

37:                                               ; preds = %35
  %38 = load ptr, ptr %8, align 8
  %.not9.i.i = icmp eq ptr %38, null
  br i1 %.not9.i.i, label %41, label %39

39:                                               ; preds = %37
  %40 = call dereferenceable_or_null(16) ptr @realloc(ptr noundef nonnull %38, i64 noundef 16) #8
  br label %Vec_StrGrow.exit.i

41:                                               ; preds = %37
  %42 = call noalias dereferenceable_or_null(16) ptr @malloc(i64 noundef 16) #7
  br label %Vec_StrGrow.exit.i

Vec_StrGrow.exit.i:                               ; preds = %41, %39
  %43 = phi ptr [ %40, %39 ], [ %42, %41 ]
  store ptr %43, ptr %8, align 8
  store i32 16, ptr %5, align 8
  br label %Vec_StrPush.exit

44:                                               ; preds = %35
  %45 = shl nuw nsw i32 %32, 1
  %46 = load ptr, ptr %8, align 8
  %.not9.i9.i = icmp eq ptr %46, null
  %47 = zext nneg i32 %45 to i64
  br i1 %.not9.i9.i, label %50, label %48

48:                                               ; preds = %44
  %49 = call ptr @realloc(ptr noundef nonnull %46, i64 noundef %47) #8
  br label %52

50:                                               ; preds = %44
  %51 = call noalias ptr @malloc(i64 noundef %47) #7
  br label %52

52:                                               ; preds = %50, %48
  %53 = phi ptr [ %49, %48 ], [ %51, %50 ]
  store ptr %53, ptr %8, align 8
  store i32 %45, ptr %5, align 8
  br label %Vec_StrPush.exit

Vec_StrPush.exit:                                 ; preds = %.Vec_StrGrow.exit10_crit_edge.i, %Vec_StrGrow.exit.i, %52
  %54 = phi ptr [ %.pre.i, %.Vec_StrGrow.exit10_crit_edge.i ], [ %53, %52 ], [ %43, %Vec_StrGrow.exit.i ]
  %55 = load i32, ptr %6, align 4
  %56 = add nsw i32 %55, 1
  store i32 %56, ptr %6, align 4
  %57 = sext i32 %55 to i64
  %58 = getelementptr inbounds i8, ptr %54, i64 %57
  store i8 0, ptr %58, align 1
  %59 = call ptr @Gia_ManDupCones(ptr noundef %1, ptr noundef nonnull %4, i32 noundef 1, i32 noundef 0) #6
  %.val27 = load i32, ptr %27, align 4
  %60 = call i32 @Abc_ObjExpandCubes(ptr noundef nonnull %5, ptr noundef %59, i32 noundef %.val27)
  %.not20 = icmp eq i32 %60, 0
  br i1 %.not20, label %62, label %61

61:                                               ; preds = %Vec_StrPush.exit
  store i32 0, ptr %27, align 4
  br label %62

62:                                               ; preds = %61, %Vec_StrPush.exit
  call void @Gia_ManStop(ptr noundef %59) #6
  %63 = load ptr, ptr %12, align 8
  %.val = load ptr, ptr %8, align 8
  %64 = call ptr @Abc_SopRegister(ptr noundef %63, ptr noundef %.val) #6
  store ptr %64, ptr %30, align 8
  %.pre = load i32, ptr %4, align 4
  %.val21.pre = load ptr, ptr %9, align 8
  br label %65

65:                                               ; preds = %13, %26, %62
  %.val21 = phi ptr [ %.val2132, %13 ], [ %.val2132, %26 ], [ %.val21.pre, %62 ]
  %66 = phi i32 [ %storemerge30, %13 ], [ %storemerge30, %26 ], [ %.pre, %62 ]
  %67 = add nsw i32 %66, 1
  store i32 %67, ptr %4, align 4
  %68 = getelementptr i8, ptr %.val21, i64 4
  %.val21.val = load i32, ptr %68, align 4
  %69 = icmp slt i32 %67, %.val21.val
  br i1 %69, label %13, label %.critedge.loopexit, !llvm.loop !12

.critedge.loopexit:                               ; preds = %65
  %.pre34 = load ptr, ptr %8, align 8
  br label %.critedge

.critedge:                                        ; preds = %.critedge.loopexit, %3
  %70 = phi ptr [ %.pre34, %.critedge.loopexit ], [ %7, %3 ]
  %.not.i = icmp eq ptr %70, null
  br i1 %.not.i, label %Vec_StrFree.exit, label %71

71:                                               ; preds = %.critedge
  call void @free(ptr noundef nonnull %70) #6
  br label %Vec_StrFree.exit

Vec_StrFree.exit:                                 ; preds = %.critedge, %71
  call void @free(ptr noundef nonnull %5) #6
  call void @Abc_NtkSortSops(ptr noundef nonnull %0) #6
  ret void
}